target datalayout = "e-m:e-p270:32:32-p271:32:32-p272:64:64-i64:64-i128:128-f80:128-n8:16:32:64-S128"
target triple = "x86_64-pc-linux-gnu"

%struct.cache_bin_info_s = type { i16 }
%struct.nstime_t = type { i64 }
%struct.tcache_slow_s = type { %struct.anon, %struct.cache_bin_array_descriptor_s, ptr, i32, %struct.nstime_t, i32, i32, i32, [36 x %struct.cache_bin_fill_ctl_s], [36 x i8], [36 x i8], ptr, ptr }
%struct.anon = type { ptr, ptr }
%struct.cache_bin_array_descriptor_s = type { %struct.anon.0, ptr }
%struct.anon.0 = type { ptr, ptr }
%struct.cache_bin_fill_ctl_s = type { i8, i8 }
%struct.tcache_s = type { ptr, [73 x %struct.cache_bin_s] }
%struct.cache_bin_s = type { ptr, %struct.cache_bin_stats_s, i16, i16, i16, %struct.cache_bin_info_s }
%struct.cache_bin_stats_s = type { i64 }

@je_opt_experimental_tcache_gc = external global i8, align 1

; Function Attrs: alwaysinline nounwind uwtable
define internal ptr @cache_bin_alloc_impl(ptr noundef %0, ptr noundef %1, i1 noundef zeroext %2) #1 {
  %4 = alloca ptr, align 8
  %5 = alloca ptr, align 8
  %6 = alloca ptr, align 8
  %7 = alloca i8, align 1
  %8 = alloca ptr, align 8
  %9 = alloca i16, align 2
  %10 = alloca ptr, align 8
  %11 = alloca i32, align 4
  store ptr %0, ptr %5, align 8, !tbaa !41
  store ptr %1, ptr %6, align 8, !tbaa !42
  %12 = zext i1 %2 to i8
  store i8 %12, ptr %7, align 1, !tbaa !22
  call void @llvm.lifetime.start.p0(i64 8, ptr %8) #13
  %13 = load ptr, ptr %5, align 8, !tbaa !41
  %14 = getelementptr inbounds nuw %struct.cache_bin_s, ptr %13, i32 0, i32 0
  %15 = load ptr, ptr %14, align 8, !tbaa !55
  %16 = load ptr, ptr %15, align 8, !tbaa !9
  store ptr %16, ptr %8, align 8, !tbaa !9
  call void @llvm.lifetime.start.p0(i64 2, ptr %9) #13
  %17 = load ptr, ptr %5, align 8, !tbaa !41
  %18 = getelementptr inbounds nuw %struct.cache_bin_s, ptr %17, i32 0, i32 0
  %19 = load ptr, ptr %18, align 8, !tbaa !55
  %20 = ptrtoint ptr %19 to i64
  %21 = trunc i64 %20 to i16
  store i16 %21, ptr %9, align 2, !tbaa !46
  call void @llvm.lifetime.start.p0(i64 8, ptr %10) #13
  %22 = load ptr, ptr %5, align 8, !tbaa !41
  %23 = getelementptr inbounds nuw %struct.cache_bin_s, ptr %22, i32 0, i32 0
  %24 = load ptr, ptr %23, align 8, !tbaa !55
  %25 = getelementptr inbounds ptr, ptr %24, i64 1
  store ptr %25, ptr %10, align 8, !tbaa !9
  %26 = load i16, ptr %9, align 2, !tbaa !46
  %27 = zext i16 %26 to i32
  %28 = load ptr, ptr %5, align 8, !tbaa !41
  %29 = getelementptr inbounds nuw %struct.cache_bin_s, ptr %28, i32 0, i32 2
  %30 = load i16, ptr %29, align 8, !tbaa !186
  %31 = zext i16 %30 to i32
  %32 = icmp ne i32 %27, %31
  %33 = xor i1 %32, true
  %34 = xor i1 %33, true
  %35 = zext i1 %34 to i32
  %36 = sext i32 %35 to i64
  %37 = call i64 @llvm.expect.i64(i64 %36, i64 1)
  %38 = icmp ne i64 %37, 0
  br i1 %38, label %39, label %45

39:                                               ; preds = %3
  %40 = load ptr, ptr %10, align 8, !tbaa !9
  %41 = load ptr, ptr %5, align 8, !tbaa !41
  %42 = getelementptr inbounds nuw %struct.cache_bin_s, ptr %41, i32 0, i32 0
  store ptr %40, ptr %42, align 8, !tbaa !55
  %43 = load ptr, ptr %6, align 8, !tbaa !42
  store i8 1, ptr %43, align 1, !tbaa !22
  %44 = load ptr, ptr %8, align 8, !tbaa !9
  store ptr %44, ptr %4, align 8
  store i32 1, ptr %11, align 4
  br label %77

45:                                               ; preds = %3
  %46 = load i8, ptr %7, align 1, !tbaa !22, !range !23, !noundef !24
  %47 = trunc i8 %46 to i1
  br i1 %47, label %50, label %48

48:                                               ; preds = %45
  %49 = load ptr, ptr %6, align 8, !tbaa !42
  store i8 0, ptr %49, align 1, !tbaa !22
  store ptr null, ptr %4, align 8
  store i32 1, ptr %11, align 4
  br label %77

50:                                               ; preds = %45
  %51 = load i16, ptr %9, align 2, !tbaa !46
  %52 = zext i16 %51 to i32
  %53 = load ptr, ptr %5, align 8, !tbaa !41
  %54 = getelementptr inbounds nuw %struct.cache_bin_s, ptr %53, i32 0, i32 4
  %55 = load i16, ptr %54, align 4, !tbaa !198
  %56 = zext i16 %55 to i32
  %57 = icmp ne i32 %52, %56
  %58 = xor i1 %57, true
  %59 = xor i1 %58, true
  %60 = zext i1 %59 to i32
  %61 = sext i32 %60 to i64
  %62 = call i64 @llvm.expect.i64(i64 %61, i64 1)
  %63 = icmp ne i64 %62, 0
  br i1 %63, label %64, label %75

64:                                               ; preds = %50
  %65 = load ptr, ptr %10, align 8, !tbaa !9
  %66 = load ptr, ptr %5, align 8, !tbaa !41
  %67 = getelementptr inbounds nuw %struct.cache_bin_s, ptr %66, i32 0, i32 0
  store ptr %65, ptr %67, align 8, !tbaa !55
  %68 = load ptr, ptr %10, align 8, !tbaa !9
  %69 = ptrtoint ptr %68 to i64
  %70 = trunc i64 %69 to i16
  %71 = load ptr, ptr %5, align 8, !tbaa !41
  %72 = getelementptr inbounds nuw %struct.cache_bin_s, ptr %71, i32 0, i32 2
  store i16 %70, ptr %72, align 8, !tbaa !186
  %73 = load ptr, ptr %6, align 8, !tbaa !42
  store i8 1, ptr %73, align 1, !tbaa !22
  %74 = load ptr, ptr %8, align 8, !tbaa !9
  store ptr %74, ptr %4, align 8
  store i32 1, ptr %11, align 4
  br label %77

75:                                               ; preds = %50
  %76 = load ptr, ptr %6, align 8, !tbaa !42
  store i8 0, ptr %76, align 1, !tbaa !22
  store ptr null, ptr %4, align 8
  store i32 1, ptr %11, align 4
  br label %77

77:                                               ; preds = %75, %64, %48, %39
  call void @llvm.lifetime.end.p0(i64 8, ptr %10) #13
  call void @llvm.lifetime.end.p0(i64 2, ptr %9) #13
  call void @llvm.lifetime.end.p0(i64 8, ptr %8) #13
  %78 = load ptr, ptr %4, align 8
  ret ptr %78
}

; Function Attrs: inlinehint nounwind uwtable
define internal ptr @tcache_bin_fill_ctl_get(ptr noundef %0, i32 noundef %1) #3 {
  %3 = alloca ptr, align 8
  %4 = alloca i32, align 4
  %5 = alloca ptr, align 8
  store ptr %0, ptr %3, align 8, !tbaa !20
  store i32 %1, ptr %4, align 4, !tbaa !34
  br label %6

6:                                                ; preds = %2
  br label %7

7:                                                ; preds = %6
  call void @llvm.lifetime.start.p0(i64 8, ptr %5) #13
  %8 = load ptr, ptr %3, align 8, !tbaa !20
  %9 = getelementptr inbounds nuw %struct.tcache_slow_s, ptr %8, i32 0, i32 8
  %10 = load i32, ptr %4, align 4, !tbaa !34
  %11 = zext i32 %10 to i64
  %12 = getelementptr inbounds nuw [36 x %struct.cache_bin_fill_ctl_s], ptr %9, i64 0, i64 %11
  store ptr %12, ptr %5, align 8, !tbaa !48
  br label %13

13:                                               ; preds = %7
  br label %14

14:                                               ; preds = %13
  br label %15

15:                                               ; preds = %14
  %16 = load ptr, ptr %5, align 8, !tbaa !48
  call void @llvm.lifetime.end.p0(i64 8, ptr %5) #13
  ret ptr %16
}

; Function Attrs: inlinehint nounwind uwtable
define internal zeroext i16 @cache_bin_ncached_max_get_unsafe(ptr noundef %0) #3 {
  %2 = alloca ptr, align 8
  store ptr %0, ptr %2, align 8, !tbaa !41
  %3 = load ptr, ptr %2, align 8, !tbaa !41
  %4 = getelementptr inbounds nuw %struct.cache_bin_s, ptr %3, i32 0, i32 5
  %5 = getelementptr inbounds nuw %struct.cache_bin_info_s, ptr %4, i32 0, i32 0
  %6 = load i16, ptr %5, align 2, !tbaa !201
  ret i16 %6
}

; Function Attrs: alwaysinline nounwind uwtable
define internal ptr @cache_bin_alloc(ptr noundef %0, ptr noundef %1) #1 {
  %3 = alloca ptr, align 8
  %4 = alloca ptr, align 8
  store ptr %0, ptr %3, align 8, !tbaa !41
  store ptr %1, ptr %4, align 8, !tbaa !42
  %5 = load ptr, ptr %3, align 8, !tbaa !41
  %6 = load ptr, ptr %4, align 8, !tbaa !42
  %7 = call ptr @cache_bin_alloc_impl(ptr noundef %5, ptr noundef %6, i1 noundef zeroext true)
  ret ptr %7
}

; Function Attrs: inlinehint nounwind uwtable
define internal void @tcache_nfill_small_burst_prepare(ptr noundef %0, i32 noundef %1) #3 {
  %3 = alloca ptr, align 8
  %4 = alloca i32, align 4
  %5 = alloca ptr, align 8
  store ptr %0, ptr %3, align 8, !tbaa !20
  store i32 %1, ptr %4, align 4, !tbaa !34
  call void @llvm.lifetime.start.p0(i64 8, ptr %5) #13
  %6 = load ptr, ptr %3, align 8, !tbaa !20
  %7 = load i32, ptr %4, align 4, !tbaa !34
  %8 = call ptr @tcache_bin_fill_ctl_get(ptr noundef %6, i32 noundef %7)
  store ptr %8, ptr %5, align 8, !tbaa !48
  %9 = load ptr, ptr %5, align 8, !tbaa !48
  %10 = getelementptr inbounds nuw %struct.cache_bin_fill_ctl_s, ptr %9, i32 0, i32 1
  %11 = load i8, ptr %10, align 1, !tbaa !52
  %12 = zext i8 %11 to i32
  %13 = add nsw i32 %12, 1
  %14 = load ptr, ptr %5, align 8, !tbaa !48
  %15 = getelementptr inbounds nuw %struct.cache_bin_fill_ctl_s, ptr %14, i32 0, i32 0
  %16 = load i8, ptr %15, align 1, !tbaa !50
  %17 = zext i8 %16 to i32
  %18 = icmp slt i32 %13, %17
  br i1 %18, label %19, label %24

19:                                               ; preds = %2
  %20 = load ptr, ptr %5, align 8, !tbaa !48
  %21 = getelementptr inbounds nuw %struct.cache_bin_fill_ctl_s, ptr %20, i32 0, i32 1
  %22 = load i8, ptr %21, align 1, !tbaa !52
  %23 = add i8 %22, 1
  store i8 %23, ptr %21, align 1, !tbaa !52
  br label %24

24:                                               ; preds = %19, %2
  call void @llvm.lifetime.end.p0(i64 8, ptr %5) #13
  ret void
}

; Function Attrs: inlinehint nounwind uwtable
define internal zeroext i8 @tcache_nfill_small_lg_div_get(ptr noundef %0, i32 noundef %1) #3 {
  %3 = alloca ptr, align 8
  %4 = alloca i32, align 4
  %5 = alloca ptr, align 8
  store ptr %0, ptr %3, align 8, !tbaa !20
  store i32 %1, ptr %4, align 4, !tbaa !34
  call void @llvm.lifetime.start.p0(i64 8, ptr %5) #13
  %6 = load ptr, ptr %3, align 8, !tbaa !20
  %7 = load i32, ptr %4, align 4, !tbaa !34
  %8 = call ptr @tcache_bin_fill_ctl_get(ptr noundef %6, i32 noundef %7)
  store ptr %8, ptr %5, align 8, !tbaa !48
  %9 = load ptr, ptr %5, align 8, !tbaa !48
  %10 = getelementptr inbounds nuw %struct.cache_bin_fill_ctl_s, ptr %9, i32 0, i32 0
  %11 = load i8, ptr %10, align 1, !tbaa !50
  %12 = zext i8 %11 to i32
  %13 = load i8, ptr @je_opt_experimental_tcache_gc, align 1, !tbaa !22, !range !23, !noundef !24
  %14 = trunc i8 %13 to i1
  br i1 %14, label %15, label %20

15:                                               ; preds = %2
  %16 = load ptr, ptr %5, align 8, !tbaa !48
  %17 = getelementptr inbounds nuw %struct.cache_bin_fill_ctl_s, ptr %16, i32 0, i32 1
  %18 = load i8, ptr %17, align 1, !tbaa !52
  %19 = zext i8 %18 to i32
  br label %21

20:                                               ; preds = %2
  br label %21

21:                                               ; preds = %20, %15
  %22 = phi i32 [ %19, %15 ], [ 0, %20 ]
  %23 = sub nsw i32 %12, %22
  %24 = trunc i32 %23 to i8
  call void @llvm.lifetime.end.p0(i64 8, ptr %5) #13
  ret i8 %24
}

; Function Attrs: inlinehint nounwind uwtable
define internal zeroext i16 @cache_bin_ncached_max_get(ptr noundef %0) #3 {
  %2 = alloca ptr, align 8
  store ptr %0, ptr %2, align 8, !tbaa !41
  br label %3

3:                                                ; preds = %1
  br label %4

4:                                                ; preds = %3
  %5 = load ptr, ptr %2, align 8, !tbaa !41
  %6 = call zeroext i16 @cache_bin_ncached_max_get_unsafe(ptr noundef %5)
  ret i16 %6
}

; Function Attrs: nounwind uwtable
define hidden ptr @je_tcache_alloc_small_hard(ptr noundef %0, ptr noundef %1, ptr noundef %2, ptr noundef %3, i32 noundef %4, ptr noundef %5) #0 {
  %7 = alloca ptr, align 8
  %8 = alloca ptr, align 8
  %9 = alloca ptr, align 8
  %10 = alloca ptr, align 8
  %11 = alloca i32, align 4
  %12 = alloca ptr, align 8
  %13 = alloca ptr, align 8
  %14 = alloca ptr, align 8
  %15 = alloca i16, align 2
  store ptr %0, ptr %7, align 8, !tbaa !4
  store ptr %1, ptr %8, align 8, !tbaa !40
  store ptr %2, ptr %9, align 8, !tbaa !18
  store ptr %3, ptr %10, align 8, !tbaa !41
  store i32 %4, ptr %11, align 4, !tbaa !34
  store ptr %5, ptr %12, align 8, !tbaa !42
  call void @llvm.lifetime.start.p0(i64 8, ptr %13) #13
  %16 = load ptr, ptr %9, align 8, !tbaa !18
  %17 = getelementptr inbounds nuw %struct.tcache_s, ptr %16, i32 0, i32 0
  %18 = load ptr, ptr %17, align 8, !tbaa !44
  store ptr %18, ptr %13, align 8, !tbaa !20
  call void @llvm.lifetime.start.p0(i64 8, ptr %14) #13
  br label %19

19:                                               ; preds = %6
  br label %20

20:                                               ; preds = %19
  br label %21

21:                                               ; preds = %20
  br label %22

22:                                               ; preds = %21
  br label %23

23:                                               ; preds = %22
  br label %24

24:                                               ; preds = %23
  call void @llvm.lifetime.start.p0(i64 2, ptr %15) #13
  %25 = load ptr, ptr %10, align 8, !tbaa !41
  %26 = call zeroext i16 @cache_bin_ncached_max_get(ptr noundef %25)
  %27 = zext i16 %26 to i32
  %28 = load ptr, ptr %13, align 8, !tbaa !20
  %29 = load i32, ptr %11, align 4, !tbaa !34
  %30 = call zeroext i8 @tcache_nfill_small_lg_div_get(ptr noundef %28, i32 noundef %29)
  %31 = zext i8 %30 to i32
  %32 = ashr i32 %27, %31
  %33 = trunc i32 %32 to i16
  store i16 %33, ptr %15, align 2, !tbaa !46
  %34 = load i16, ptr %15, align 2, !tbaa !46
  %35 = zext i16 %34 to i32
  %36 = icmp eq i32 %35, 0
  br i1 %36, label %37, label %38

37:                                               ; preds = %24
  store i16 1, ptr %15, align 2, !tbaa !46
  br label %38

38:                                               ; preds = %37, %24
  %39 = load ptr, ptr %7, align 8, !tbaa !4
  %40 = load ptr, ptr %8, align 8, !tbaa !40
  %41 = load ptr, ptr %10, align 8, !tbaa !41
  %42 = load i32, ptr %11, align 4, !tbaa !34
  %43 = load i8, ptr @je_opt_experimental_tcache_gc, align 1, !tbaa !22, !range !23, !noundef !24
  %44 = trunc i8 %43 to i1
  br i1 %44, label %45, label %50

45:                                               ; preds = %38
  %46 = load i16, ptr %15, align 2, !tbaa !46
  %47 = zext i16 %46 to i32
  %48 = ashr i32 %47, 1
  %49 = add nsw i32 %48, 1
  br label %53

50:                                               ; preds = %38
  %51 = load i16, ptr %15, align 2, !tbaa !46
  %52 = zext i16 %51 to i32
  br label %53

53:                                               ; preds = %50, %45
  %54 = phi i32 [ %49, %45 ], [ %52, %50 ]
  %55 = trunc i32 %54 to i16
  %56 = load i16, ptr %15, align 2, !tbaa !46
  call void @je_arena_cache_bin_fill_small(ptr noundef %39, ptr noundef %40, ptr noundef %41, i32 noundef %42, i16 noundef zeroext %55, i16 noundef zeroext %56)
  %57 = load ptr, ptr %13, align 8, !tbaa !20
  %58 = getelementptr inbounds nuw %struct.tcache_slow_s, ptr %57, i32 0, i32 9
  %59 = load i32, ptr %11, align 4, !tbaa !34
  %60 = zext i32 %59 to i64
  %61 = getelementptr inbounds nuw [36 x i8], ptr %58, i64 0, i64 %60
  store i8 1, ptr %61, align 1, !tbaa !22
  %62 = load ptr, ptr %13, align 8, !tbaa !20
  %63 = load i32, ptr %11, align 4, !tbaa !34
  call void @tcache_nfill_small_burst_prepare(ptr noundef %62, i32 noundef %63)
  %64 = load ptr, ptr %10, align 8, !tbaa !41
  %65 = load ptr, ptr %12, align 8, !tbaa !42
  %66 = call ptr @cache_bin_alloc(ptr noundef %64, ptr noundef %65)
  store ptr %66, ptr %14, align 8, !tbaa !9
  %67 = load ptr, ptr %14, align 8, !tbaa !9
  call void @llvm.lifetime.end.p0(i64 2, ptr %15) #13
  call void @llvm.lifetime.end.p0(i64 8, ptr %14) #13
  call void @llvm.lifetime.end.p0(i64 8, ptr %13) #13
  ret ptr %67
}