; Function Attrs: nounwind uwtable
define hidden ptr @je_tcache_alloc_small_hard(ptr noundef %0, ptr noundef %1, ptr noundef readonly captures(none) %2, ptr noundef %3, i32 noundef %4, ptr noundef writeonly captures(none) initializes((0, 1)) %5) local_unnamed_addr #0 {
  %7 = load ptr, ptr %2, align 8, !tbaa !42
  %8 = getelementptr i8, ptr %3, i64 22
  %.val = load i16, ptr %8, align 2, !tbaa !44
  %9 = zext i16 %.val to i32
  %10 = getelementptr inbounds nuw i8, ptr %7, i64 76
  %11 = zext i32 %4 to i64
  %12 = getelementptr inbounds nuw [36 x %struct.cache_bin_fill_ctl_s], ptr %10, i64 0, i64 %11
  %13 = load i8, ptr %12, align 1, !tbaa !49
  %14 = load i8, ptr @je_opt_experimental_tcache_gc, align 1, !tbaa !20, !range !22, !noundef !23
  %15 = trunc nuw i8 %14 to i1
  br i1 %15, label %16, label %tcache_nfill_small_lg_div_get.exit

16:                                               ; preds = %6
  %17 = getelementptr inbounds nuw i8, ptr %12, i64 1
  %18 = load i8, ptr %17, align 1, !tbaa !51
  br label %tcache_nfill_small_lg_div_get.exit

tcache_nfill_small_lg_div_get.exit:               ; preds = %6, %16
  %19 = phi i8 [ %18, %16 ], [ 0, %6 ]
  %20 = sub i8 %13, %19
  %21 = zext nneg i8 %20 to i32
  %22 = lshr i32 %9, %21
  %23 = trunc nuw i32 %22 to i16
  %24 = icmp eq i32 %22, 0
  %spec.store.select = select i1 %24, i16 1, i16 %23
  %25 = lshr i16 %spec.store.select, 1
  %26 = add nuw i16 %25, 1
  %27 = select i1 %15, i16 %26, i16 %spec.store.select
  tail call void @je_arena_cache_bin_fill_small(ptr noundef %0, ptr noundef %1, ptr noundef nonnull %3, i32 noundef %4, i16 noundef zeroext %27, i16 noundef zeroext %spec.store.select) #16
  %28 = getelementptr inbounds nuw i8, ptr %7, i64 148
  %29 = getelementptr inbounds nuw [36 x i8], ptr %28, i64 0, i64 %11
  store i8 1, ptr %29, align 1, !tbaa !20
  %30 = getelementptr inbounds nuw i8, ptr %12, i64 1
  %31 = load i8, ptr %30, align 1, !tbaa !51
  %32 = zext i8 %31 to i32
  %33 = add nuw nsw i32 %32, 1
  %34 = load i8, ptr %12, align 1, !tbaa !49
  %35 = zext i8 %34 to i32
  %36 = icmp samesign ult i32 %33, %35
  br i1 %36, label %37, label %tcache_nfill_small_burst_prepare.exit

37:                                               ; preds = %tcache_nfill_small_lg_div_get.exit
  %38 = add i8 %31, 1
  store i8 %38, ptr %30, align 1, !tbaa !51
  br label %tcache_nfill_small_burst_prepare.exit

tcache_nfill_small_burst_prepare.exit:            ; preds = %tcache_nfill_small_lg_div_get.exit, %37
  %39 = load ptr, ptr %3, align 8, !tbaa !52
  %40 = load ptr, ptr %39, align 8, !tbaa !37
  %41 = ptrtoint ptr %39 to i64
  %42 = getelementptr inbounds nuw i8, ptr %39, i64 8
  %43 = getelementptr inbounds nuw i8, ptr %3, i64 16
  %44 = load i16, ptr %43, align 8, !tbaa !53
  %45 = trunc i64 %41 to i16
  %.not.i = icmp eq i16 %44, %45
  br i1 %.not.i, label %47, label %46, !prof !4

46:                                               ; preds = %tcache_nfill_small_burst_prepare.exit
  store ptr %42, ptr %3, align 8, !tbaa !52
  br label %cache_bin_alloc_impl.exit

47:                                               ; preds = %tcache_nfill_small_burst_prepare.exit
  %48 = getelementptr inbounds nuw i8, ptr %3, i64 20
  %49 = load i16, ptr %48, align 4, !tbaa !54
  %.not21.i = icmp eq i16 %49, %44
  br i1 %.not21.i, label %cache_bin_alloc_impl.exit, label %50, !prof !4

50:                                               ; preds = %47
  store ptr %42, ptr %3, align 8, !tbaa !52
  %51 = ptrtoint ptr %42 to i64
  %52 = trunc i64 %51 to i16
  store i16 %52, ptr %43, align 8, !tbaa !53
  br label %cache_bin_alloc_impl.exit

cache_bin_alloc_impl.exit:                        ; preds = %47, %46, %50
  %.sink = phi i8 [ 1, %46 ], [ 1, %50 ], [ 0, %47 ]
  %.0.i = phi ptr [ %40, %46 ], [ %40, %50 ], [ null, %47 ]
  store i8 %.sink, ptr %5, align 1, !tbaa !20
  ret ptr %.0.i
}